; Function Attrs: mustprogress nounwind uwtable
define dso_local void @_ZN4absl24synchronization_internal12StdcppWaiterC2Ev(ptr noundef nonnull align 8 dereferenceable(96) initializes((0, 40)) %0) unnamed_addr #0 align 2 {
  tail call void @llvm.memset.p0.i64(ptr noundef nonnull align 8 dereferenceable(40) %0, i8 0, i64 40, i1 false)
  %2 = getelementptr inbounds nuw i8, ptr %0, i64 40
  tail call void @_ZNSt18condition_variableC1Ev(ptr noundef nonnull align 8 dereferenceable(48) %2) #7
  %3 = getelementptr inbounds nuw i8, ptr %0, i64 88
  store i32 0, ptr %3, align 8, !tbaa !4
  %4 = getelementptr inbounds nuw i8, ptr %0, i64 92
  store i32 0, ptr %4, align 4, !tbaa !13
  ret void
}